target datalayout = "e-m:e-p270:32:32-p271:32:32-p272:64:64-i64:64-i128:128-f80:128-n8:16:32:64-S128"
target triple = "x86_64-pc-linux-gnu"

%"class.casadi::Slice" = type { i64, i64, i64 }

; Function Attrs: mustprogress nounwind uwtable
define linkonce_odr noundef nonnull align 8 dereferenceable(8) ptr @_ZSt3minIxERKT_S2_S2_(ptr noundef nonnull align 8 dereferenceable(8) %0, ptr noundef nonnull align 8 dereferenceable(8) %1) #4 comdat {
  %3 = alloca ptr, align 8
  %4 = alloca ptr, align 8
  %5 = alloca ptr, align 8
  store ptr %0, ptr %4, align 8
  store ptr %1, ptr %5, align 8
  %6 = load ptr, ptr %5, align 8
  %7 = load i64, ptr %6, align 8
  %8 = load ptr, ptr %4, align 8
  %9 = load i64, ptr %8, align 8
  %10 = icmp slt i64 %7, %9
  br i1 %10, label %11, label %13

11:                                               ; preds = %2
  %12 = load ptr, ptr %5, align 8
  store ptr %12, ptr %3, align 8
  br label %15

13:                                               ; preds = %2
  %14 = load ptr, ptr %4, align 8
  store ptr %14, ptr %3, align 8
  br label %15

15:                                               ; preds = %13, %11
  %16 = load ptr, ptr %3, align 8
  ret ptr %16
}

; Function Attrs: mustprogress uwtable
define noundef zeroext i1 @_ZNK6casadi5Slice9is_scalarEx(ptr noundef nonnull align 8 dereferenceable(24) %0, i64 noundef %1) #5 align 2 {
  %3 = alloca ptr, align 8
  %4 = alloca i64, align 8
  %5 = alloca i64, align 8
  %6 = alloca i64, align 8
  %7 = alloca i64, align 8
  store ptr %0, ptr %3, align 8
  store i64 %1, ptr %4, align 8
  %8 = load ptr, ptr %3, align 8
  %9 = getelementptr inbounds %"class.casadi::Slice", ptr %8, i32 0, i32 0
  %10 = call noundef nonnull align 8 dereferenceable(8) ptr @_ZSt3minIxERKT_S2_S2_(ptr noundef nonnull align 8 dereferenceable(8) %9, ptr noundef nonnull align 8 dereferenceable(8) %4)
  %11 = load i64, ptr %10, align 8
  store i64 %11, ptr %5, align 8
  %12 = getelementptr inbounds %"class.casadi::Slice", ptr %8, i32 0, i32 1
  %13 = call noundef nonnull align 8 dereferenceable(8) ptr @_ZSt3minIxERKT_S2_S2_(ptr noundef nonnull align 8 dereferenceable(8) %12, ptr noundef nonnull align 8 dereferenceable(8) %4)
  %14 = load i64, ptr %13, align 8
  store i64 %14, ptr %6, align 8
  %15 = load i64, ptr %6, align 8
  %16 = load i64, ptr %5, align 8
  %17 = sub nsw i64 %15, %16
  %18 = getelementptr inbounds %"class.casadi::Slice", ptr %8, i32 0, i32 2
  %19 = load i64, ptr %18, align 8
  %20 = sdiv i64 %17, %19
  %21 = load i64, ptr %6, align 8
  %22 = load i64, ptr %5, align 8
  %23 = sub nsw i64 %21, %22
  %24 = getelementptr inbounds %"class.casadi::Slice", ptr %8, i32 0, i32 2
  %25 = load i64, ptr %24, align 8
  %26 = srem i64 %23, %25
  %27 = icmp ne i64 %26, 0
  %28 = zext i1 %27 to i64
  %29 = add nsw i64 %20, %28
  store i64 %29, ptr %7, align 8
  %30 = load i64, ptr %7, align 8
  %31 = icmp eq i64 %30, 1
  ret i1 %31
}