; Function Attrs: mustprogress nofree norecurse nosync nounwind willreturn memory(argmem: read) uwtable
define noundef zeroext i1 @_ZNK6casadi5Slice9is_scalarEx(ptr nocapture noundef nonnull readonly align 8 dereferenceable(24) %0, i64 noundef %1) local_unnamed_addr #7 align 2 {
  %3 = load i64, ptr %0, align 8
  %.sroa.speculated9 = tail call i64 @llvm.smin.i64(i64 %3, i64 %1)
  %4 = getelementptr inbounds i8, ptr %0, i64 8
  %5 = load i64, ptr %4, align 8
  %.sroa.speculated = tail call i64 @llvm.smin.i64(i64 %5, i64 %1)
  %6 = sub nsw i64 %.sroa.speculated, %.sroa.speculated9
  %7 = getelementptr inbounds i8, ptr %0, i64 16
  %8 = load i64, ptr %7, align 8
  %9 = sdiv i64 %6, %8
  %10 = srem i64 %6, %8
  %11 = icmp ne i64 %10, 0
  %12 = zext i1 %11 to i64
  %13 = add nsw i64 %9, %12
  %14 = icmp eq i64 %13, 1
  ret i1 %14
}